(lp0
(S'elfflags'
p1
ccopy_reg
_reconstructor
p2
(cino.utils
SpaceList
p3
c__builtin__
list
p4
(lp5
S'-Os'
p6
aS'-Wl,--gc-sections'
p7
aS'-mmcu=atmega328p'
p8
atp9
Rp10
tp11
a(S'version.txt'
p12
S'/usr/share/arduino/lib/version.txt'
p13
tp14
a(S'used_libs'
p15
(lp16
S'lib/Adafruit-GPS-Library-master'
p17
aS'/usr/share/arduino/libraries/Servo'
p18
aS'lib/LSM303-master'
p19
aS'lib/ros_lib'
p20
aS'/usr/share/arduino/libraries/SoftwareSerial'
p21
aS'/usr/share/arduino/libraries/Wire'
p22
aS'/usr/share/arduino/hardware/arduino/cores/arduino'
p23
atp24
a(S'cc'
p25
S'/usr/bin/avr-gcc'
p26
tp27
a(S'build_dir'
p28
S'.build/uno'
p29
tp30
a(S'arduino_core_dir'
p31
g23
tp32
a(S'boards.txt'
p33
S'/usr/share/arduino/hardware/arduino/boards.txt'
p34
tp35
a(S'cxxflags'
p36
g2
(g3
g4
(lp37
S'-fno-exceptions'
p38
atp39
Rp40
tp41
a(S'arduino_variants_dir'
p42
S'/usr/share/arduino/hardware/arduino/variants'
p43
tp44
a(S'deps'
p45
g2
(g3
g4
(lp46
S'.build/uno/src/dependencies.d'
p47
aS'.build/uno/arduino/dependencies.d'
p48
aS'.build/uno/Wire/dependencies.d'
p49
aS'.build/uno/SoftwareSerial/dependencies.d'
p50
aS'.build/uno/Adafruit-GPS-Library-master/dependencies.d'
p51
aS'.build/uno/Servo/dependencies.d'
p52
aS'.build/uno/LSM303-master/dependencies.d'
p53
aS'.build/uno/ros_lib/dependencies.d'
p54
atp55
Rp56
tp57
a(S'ar'
p58
S'/usr/bin/avr-ar'
p59
tp60
a(S'names'
p61
(dp62
S'cpp'
p63
S'%s.cpp'
p64
sS'obj'
p65
S'%s.o'
p66
sS'deps'
p67
S'%s.d'
p68
sS'lib'
p69
S'lib%s.a'
p70
stp71
a(S'cflags'
p72
g2
(g3
g4
(lp73
g8
aS'-ffunction-sections'
p74
aS'-fdata-sections'
p75
aS'-g'
p76
ag6
aS'-w'
p77
aS'-DF_CPU=16000000L'
p78
aS'-DARDUINO=100'
p79
aS'-I/usr/share/arduino/hardware/arduino/cores/arduino'
p80
aS'-I/usr/share/arduino/hardware/arduino/variants/standard'
p81
aS'-Ilib/Adafruit-GPS-Library-master'
p82
aS'-I/usr/share/arduino/libraries/Servo'
p83
aS'-Ilib/LSM303-master'
p84
aS'-Ilib/LSM303-master/LSM303'
p85
aS'-Ilib/ros_lib'
p86
aS'-Ilib/ros_lib/tf'
p87
aS'-Ilib/ros_lib/geometry_msgs'
p88
aS'-Ilib/ros_lib/std_msgs'
p89
aS'-Ilib/ros_lib/nav_msgs'
p90
aS'-Ilib/ros_lib/sensor_msgs'
p91
aS'-Ilib/ros_lib/rosserial_arduino'
p92
aS'-Ilib/ros_lib/rosserial_msgs'
p93
aS'-Ilib/ros_lib/tests'
p94
aS'-Ilib/ros_lib/ros'
p95
aS'-Ilib/ros_lib/diagnostic_msgs'
p96
aS'-Ilib/ros_lib/tests/array_test'
p97
aS'-Ilib/ros_lib/tests/float64_test'
p98
aS'-Ilib/ros_lib/tests/time_test'
p99
aS'-I/usr/share/arduino/libraries/SoftwareSerial'
p100
aS'-I/usr/share/arduino/libraries/Wire'
p101
aS'-I/usr/share/arduino/libraries/Wire/utility'
p102
aS'-I/usr/share/arduino/hardware/arduino/cores/arduino'
p103
atp104
Rp105
tp106
a(S'arduino_libraries_dir'
p107
S'/usr/share/arduino/libraries'
p108
tp109
a(S'arduino_lib_version'
p110
g2
(cino.environment
Version
p111
c__builtin__
tuple
p112
(I1
I0
tp113
tp114
Rp115
tp116
a(S'objcopy'
p117
S'/usr/bin/avr-objcopy'
p118
tp119
a(S'board_models'
p120
cino.environment
BoardModels
p121
((lp122
(lp123
S'uno'
p124
a(dp125
S'bootloader'
p126
(dp127
S'extended_fuses'
p128
S'0x05'
p129
sS'high_fuses'
p130
S'0xde'
p131
sS'low_fuses'
p132
S'0xff'
p133
sS'lock_bits'
p134
S'0x0F'
p135
sS'file'
p136
S'optiboot_atmega328.hex'
p137
sS'path'
p138
S'optiboot'
p139
sS'unlock_bits'
p140
S'0x3F'
p141
ssS'upload'
p142
(dp143
S'speed'
p144
S'115200'
p145
sS'maximum_size'
p146
S'32256'
p147
sS'protocol'
p148
S'arduino'
p149
ssS'name'
p150
S'Arduino Uno'
p151
sS'build'
p152
(dp153
S'core'
p154
S'arduino'
p155
sS'mcu'
p156
S'atmega328p'
p157
sS'f_cpu'
p158
S'16000000L'
p159
sS'variant'
p160
S'standard'
p161
ssaa(lp162
S'atmega328'
p163
a(dp164
S'bootloader'
p165
(dp166
S'extended_fuses'
p167
S'0x05'
p168
sS'high_fuses'
p169
S'0xDA'
p170
sS'low_fuses'
p171
S'0xFF'
p172
sS'lock_bits'
p173
S'0x0F'
p174
sS'file'
p175
S'ATmegaBOOT_168_atmega328.hex'
p176
sS'path'
p177
S'atmega'
p178
sS'unlock_bits'
p179
S'0x3F'
p180
ssS'upload'
p181
(dp182
S'speed'
p183
S'57600'
p184
sS'maximum_size'
p185
S'30720'
p186
sS'protocol'
p187
S'arduino'
p188
ssS'name'
p189
S'Arduino Duemilanove w/ ATmega328'
p190
sS'build'
p191
(dp192
S'core'
p193
S'arduino'
p194
sS'mcu'
p195
S'atmega328p'
p196
sS'f_cpu'
p197
S'16000000L'
p198
sS'variant'
p199
S'standard'
p200
ssaa(lp201
S'diecimila'
p202
a(dp203
S'bootloader'
p204
(dp205
S'extended_fuses'
p206
S'0x00'
p207
sS'high_fuses'
p208
S'0xdd'
p209
sS'low_fuses'
p210
S'0xff'
p211
sS'lock_bits'
p212
S'0x0F'
p213
sS'file'
p214
S'ATmegaBOOT_168_diecimila.hex'
p215
sS'path'
p216
S'atmega'
p217
sS'unlock_bits'
p218
S'0x3F'
p219
ssS'upload'
p220
(dp221
S'speed'
p222
S'19200'
p223
sS'maximum_size'
p224
S'14336'
p225
sS'protocol'
p226
S'arduino'
p227
ssS'name'
p228
S'Arduino Diecimila or Duemilanove w/ ATmega168'
p229
sS'build'
p230
(dp231
S'core'
p232
S'arduino'
p233
sS'mcu'
p234
S'atmega168'
p235
sS'f_cpu'
p236
S'16000000L'
p237
sS'variant'
p238
S'standard'
p239
ssaa(lp240
S'nano328'
p241
a(dp242
S'bootloader'
p243
(dp244
S'extended_fuses'
p245
S'0x05'
p246
sS'high_fuses'
p247
S'0xDA'
p248
sS'low_fuses'
p249
S'0xFF'
p250
sS'lock_bits'
p251
S'0x0F'
p252
sS'file'
p253
S'ATmegaBOOT_168_atmega328.hex'
p254
sS'path'
p255
S'atmega'
p256
sS'unlock_bits'
p257
S'0x3F'
p258
ssS'upload'
p259
(dp260
S'speed'
p261
S'57600'
p262
sS'maximum_size'
p263
S'30720'
p264
sS'protocol'
p265
S'arduino'
p266
ssS'name'
p267
S'Arduino Nano w/ ATmega328'
p268
sS'build'
p269
(dp270
S'core'
p271
S'arduino'
p272
sS'mcu'
p273
S'atmega328p'
p274
sS'f_cpu'
p275
S'16000000L'
p276
sS'variant'
p277
S'eightanaloginputs'
p278
ssaa(lp279
S'nano'
p280
a(dp281
S'bootloader'
p282
(dp283
S'extended_fuses'
p284
S'0x00'
p285
sS'high_fuses'
p286
S'0xdd'
p287
sS'low_fuses'
p288
S'0xff'
p289
sS'lock_bits'
p290
S'0x0F'
p291
sS'file'
p292
S'ATmegaBOOT_168_diecimila.hex'
p293
sS'path'
p294
S'atmega'
p295
sS'unlock_bits'
p296
S'0x3F'
p297
ssS'upload'
p298
(dp299
S'speed'
p300
S'19200'
p301
sS'maximum_size'
p302
S'14336'
p303
sS'protocol'
p304
S'arduino'
p305
ssS'name'
p306
S'Arduino Nano w/ ATmega168'
p307
sS'build'
p308
(dp309
S'core'
p310
S'arduino'
p311
sS'mcu'
p312
S'atmega168'
p313
sS'f_cpu'
p314
S'16000000L'
p315
sS'variant'
p316
S'eightanaloginputs'
p317
ssaa(lp318
S'mega2560'
p319
a(dp320
S'bootloader'
p321
(dp322
S'extended_fuses'
p323
S'0xFD'
p324
sS'high_fuses'
p325
S'0xD8'
p326
sS'low_fuses'
p327
S'0xFF'
p328
sS'lock_bits'
p329
S'0x0F'
p330
sS'file'
p331
S'stk500boot_v2_mega2560.hex'
p332
sS'path'
p333
S'stk500v2'
p334
sS'unlock_bits'
p335
S'0x3F'
p336
ssS'upload'
p337
(dp338
S'speed'
p339
S'115200'
p340
sS'maximum_size'
p341
S'258048'
p342
sS'protocol'
p343
S'stk500v2'
p344
ssS'name'
p345
S'Arduino Mega 2560 or Mega ADK'
p346
sS'build'
p347
(dp348
S'core'
p349
S'arduino'
p350
sS'mcu'
p351
S'atmega2560'
p352
sS'f_cpu'
p353
S'16000000L'
p354
sS'variant'
p355
S'mega'
p356
ssaa(lp357
S'mega'
p358
a(dp359
S'bootloader'
p360
(dp361
S'extended_fuses'
p362
S'0xF5'
p363
sS'high_fuses'
p364
S'0xDA'
p365
sS'low_fuses'
p366
S'0xFF'
p367
sS'lock_bits'
p368
S'0x0F'
p369
sS'file'
p370
S'ATmegaBOOT_168_atmega1280.hex'
p371
sS'path'
p372
S'atmega'
p373
sS'unlock_bits'
p374
S'0x3F'
p375
ssS'upload'
p376
(dp377
S'speed'
p378
S'57600'
p379
sS'maximum_size'
p380
S'126976'
p381
sS'protocol'
p382
S'arduino'
p383
ssS'name'
p384
S'Arduino Mega (ATmega1280)'
p385
sS'build'
p386
(dp387
S'core'
p388
S'arduino'
p389
sS'mcu'
p390
S'atmega1280'
p391
sS'f_cpu'
p392
S'16000000L'
p393
sS'variant'
p394
S'mega'
p395
ssaa(lp396
S'mini328'
p397
a(dp398
S'bootloader'
p399
(dp400
S'extended_fuses'
p401
S'0x05'
p402
sS'high_fuses'
p403
S'0xd8'
p404
sS'low_fuses'
p405
S'0xff'
p406
sS'lock_bits'
p407
S'0x0F'
p408
sS'file'
p409
S'optiboot_atmega328-Mini.hex'
p410
sS'path'
p411
S'optiboot'
p412
sS'unlock_bits'
p413
S'0x3F'
p414
ssS'upload'
p415
(dp416
S'speed'
p417
S'115200'
p418
sS'maximum_size'
p419
S'28672'
p420
sS'protocol'
p421
S'stk500'
p422
ssS'name'
p423
S'Arduino Mini w/ ATmega328'
p424
sS'build'
p425
(dp426
S'core'
p427
S'arduino'
p428
sS'mcu'
p429
S'atmega328p'
p430
sS'f_cpu'
p431
S'16000000L'
p432
sS'variant'
p433
S'eightanaloginputs'
p434
ssaa(lp435
S'mini'
p436
a(dp437
S'bootloader'
p438
(dp439
S'extended_fuses'
p440
S'0x00'
p441
sS'high_fuses'
p442
S'0xdd'
p443
sS'low_fuses'
p444
S'0xff'
p445
sS'lock_bits'
p446
S'0x0F'
p447
sS'file'
p448
S'ATmegaBOOT_168_ng.hex'
p449
sS'path'
p450
S'atmega'
p451
sS'unlock_bits'
p452
S'0x3F'
p453
ssS'upload'
p454
(dp455
S'speed'
p456
S'19200'
p457
sS'maximum_size'
p458
S'14336'
p459
sS'protocol'
p460
S'arduino'
p461
ssS'name'
p462
S'Arduino Mini w/ ATmega168'
p463
sS'build'
p464
(dp465
S'core'
p466
S'arduino'
p467
sS'mcu'
p468
S'atmega168'
p469
sS'f_cpu'
p470
S'16000000L'
p471
sS'variant'
p472
S'eightanaloginputs'
p473
ssaa(lp474
S'ethernet'
p475
a(dp476
S'bootloader'
p477
(dp478
S'extended_fuses'
p479
S'0x05'
p480
sS'high_fuses'
p481
S'0xde'
p482
sS'low_fuses'
p483
S'0xff'
p484
sS'lock_bits'
p485
S'0x0F'
p486
sS'file'
p487
S'optiboot_atmega328.hex'
p488
sS'path'
p489
S'optiboot'
p490
sS'unlock_bits'
p491
S'0x3F'
p492
ssS'upload'
p493
(dp494
S'speed'
p495
S'115200'
p496
sS'maximum_size'
p497
S'32256'
p498
sS'protocol'
p499
S'arduino'
p500
ssS'name'
p501
S'Arduino Ethernet'
p502
sS'build'
p503
(dp504
S'f_cpu'
p505
S'16000000L'
p506
sS'mcu'
p507
S'atmega328p'
p508
sS'variant'
p509
S'standard'
p510
sS'core'
p511
S'arduino'
p512
ssaa(lp513
S'fio'
p514
a(dp515
S'bootloader'
p516
(dp517
S'extended_fuses'
p518
S'0x05'
p519
sS'high_fuses'
p520
S'0xDA'
p521
sS'low_fuses'
p522
S'0xFF'
p523
sS'lock_bits'
p524
S'0x0F'
p525
sS'file'
p526
S'ATmegaBOOT_168_atmega328_pro_8MHz.hex'
p527
sS'path'
p528
S'arduino:atmega'
p529
sS'unlock_bits'
p530
S'0x3F'
p531
ssS'upload'
p532
(dp533
S'speed'
p534
S'57600'
p535
sS'maximum_size'
p536
S'30720'
p537
sS'protocol'
p538
S'arduino'
p539
ssS'name'
p540
S'Arduino Fio'
p541
sS'build'
p542
(dp543
S'core'
p544
S'arduino'
p545
sS'mcu'
p546
S'atmega328p'
p547
sS'f_cpu'
p548
S'8000000L'
p549
sS'variant'
p550
S'eightanaloginputs'
p551
ssaa(lp552
S'bt328'
p553
a(dp554
S'bootloader'
p555
(dp556
S'extended_fuses'
p557
S'0x05'
p558
sS'high_fuses'
p559
S'0xd8'
p560
sS'low_fuses'
p561
S'0xff'
p562
sS'lock_bits'
p563
S'0x0F'
p564
sS'file'
p565
S'ATmegaBOOT_168_atmega328_bt.hex'
p566
sS'path'
p567
S'bt'
p568
sS'unlock_bits'
p569
S'0x3F'
p570
ssS'upload'
p571
(dp572
S'speed'
p573
S'19200'
p574
sS'maximum_size'
p575
S'28672'
p576
sS'protocol'
p577
S'arduino'
p578
sS'disable_flushing'
p579
S'true'
p580
ssS'name'
p581
S'Arduino BT w/ ATmega328'
p582
sS'build'
p583
(dp584
S'core'
p585
S'arduino'
p586
sS'mcu'
p587
S'atmega328p'
p588
sS'f_cpu'
p589
S'16000000L'
p590
sS'variant'
p591
S'eightanaloginputs'
p592
ssaa(lp593
S'bt'
p594
a(dp595
S'bootloader'
p596
(dp597
S'extended_fuses'
p598
S'0x00'
p599
sS'high_fuses'
p600
S'0xdd'
p601
sS'low_fuses'
p602
S'0xff'
p603
sS'lock_bits'
p604
S'0x0F'
p605
sS'file'
p606
S'ATmegaBOOT_168.hex'
p607
sS'path'
p608
S'bt'
p609
sS'unlock_bits'
p610
S'0x3F'
p611
ssS'upload'
p612
(dp613
S'speed'
p614
S'19200'
p615
sS'maximum_size'
p616
S'14336'
p617
sS'protocol'
p618
S'arduino'
p619
sS'disable_flushing'
p620
S'true'
p621
ssS'name'
p622
S'Arduino BT w/ ATmega168'
p623
sS'build'
p624
(dp625
S'core'
p626
S'arduino'
p627
sS'mcu'
p628
S'atmega168'
p629
sS'f_cpu'
p630
S'16000000L'
p631
sS'variant'
p632
S'eightanaloginputs'
p633
ssaa(lp634
S'lilypad328'
p635
a(dp636
S'bootloader'
p637
(dp638
S'extended_fuses'
p639
S'0x05'
p640
sS'high_fuses'
p641
S'0xDA'
p642
sS'low_fuses'
p643
S'0xFF'
p644
sS'lock_bits'
p645
S'0x0F'
p646
sS'file'
p647
S'ATmegaBOOT_168_atmega328_pro_8MHz.hex'
p648
sS'path'
p649
S'atmega'
p650
sS'unlock_bits'
p651
S'0x3F'
p652
ssS'upload'
p653
(dp654
S'speed'
p655
S'57600'
p656
sS'maximum_size'
p657
S'30720'
p658
sS'protocol'
p659
S'arduino'
p660
ssS'name'
p661
S'LilyPad Arduino w/ ATmega328'
p662
sS'build'
p663
(dp664
S'core'
p665
S'arduino'
p666
sS'mcu'
p667
S'atmega328p'
p668
sS'f_cpu'
p669
S'8000000L'
p670
sS'variant'
p671
S'standard'
p672
ssaa(lp673
S'lilypad'
p674
a(dp675
S'bootloader'
p676
(dp677
S'extended_fuses'
p678
S'0x00'
p679
sS'high_fuses'
p680
S'0xdd'
p681
sS'low_fuses'
p682
S'0xe2'
p683
sS'lock_bits'
p684
S'0x0F'
p685
sS'file'
p686
S'LilyPadBOOT_168.hex'
p687
sS'path'
p688
S'lilypad'
p689
sS'unlock_bits'
p690
S'0x3F'
p691
ssS'upload'
p692
(dp693
S'speed'
p694
S'19200'
p695
sS'maximum_size'
p696
S'14336'
p697
sS'protocol'
p698
S'arduino'
p699
ssS'name'
p700
S'LilyPad Arduino w/ ATmega168'
p701
sS'build'
p702
(dp703
S'core'
p704
S'arduino'
p705
sS'mcu'
p706
S'atmega168'
p707
sS'f_cpu'
p708
S'8000000L'
p709
sS'variant'
p710
S'standard'
p711
ssaa(lp712
S'pro5v328'
p713
a(dp714
S'bootloader'
p715
(dp716
S'extended_fuses'
p717
S'0x05'
p718
sS'high_fuses'
p719
S'0xDA'
p720
sS'low_fuses'
p721
S'0xFF'
p722
sS'lock_bits'
p723
S'0x0F'
p724
sS'file'
p725
S'ATmegaBOOT_168_atmega328.hex'
p726
sS'path'
p727
S'atmega'
p728
sS'unlock_bits'
p729
S'0x3F'
p730
ssS'upload'
p731
(dp732
S'speed'
p733
S'57600'
p734
sS'maximum_size'
p735
S'30720'
p736
sS'protocol'
p737
S'arduino'
p738
ssS'name'
p739
S'Arduino Pro or Pro Mini (5V, 16 MHz) w/ ATmega328'
p740
sS'build'
p741
(dp742
S'core'
p743
S'arduino'
p744
sS'mcu'
p745
S'atmega328p'
p746
sS'f_cpu'
p747
S'16000000L'
p748
sS'variant'
p749
S'standard'
p750
ssaa(lp751
S'pro5v'
p752
a(dp753
S'bootloader'
p754
(dp755
S'extended_fuses'
p756
S'0x00'
p757
sS'high_fuses'
p758
S'0xdd'
p759
sS'low_fuses'
p760
S'0xff'
p761
sS'lock_bits'
p762
S'0x0F'
p763
sS'file'
p764
S'ATmegaBOOT_168_diecimila.hex'
p765
sS'path'
p766
S'atmega'
p767
sS'unlock_bits'
p768
S'0x3F'
p769
ssS'upload'
p770
(dp771
S'speed'
p772
S'19200'
p773
sS'maximum_size'
p774
S'14336'
p775
sS'protocol'
p776
S'arduino'
p777
ssS'name'
p778
S'Arduino Pro or Pro Mini (5V, 16 MHz) w/ ATmega168'
p779
sS'build'
p780
(dp781
S'core'
p782
S'arduino'
p783
sS'mcu'
p784
S'atmega168'
p785
sS'f_cpu'
p786
S'16000000L'
p787
sS'variant'
p788
S'standard'
p789
ssaa(lp790
S'pro328'
p791
a(dp792
S'bootloader'
p793
(dp794
S'extended_fuses'
p795
S'0x05'
p796
sS'high_fuses'
p797
S'0xDA'
p798
sS'low_fuses'
p799
S'0xFF'
p800
sS'lock_bits'
p801
S'0x0F'
p802
sS'file'
p803
S'ATmegaBOOT_168_atmega328_pro_8MHz.hex'
p804
sS'path'
p805
S'atmega'
p806
sS'unlock_bits'
p807
S'0x3F'
p808
ssS'upload'
p809
(dp810
S'speed'
p811
S'57600'
p812
sS'maximum_size'
p813
S'30720'
p814
sS'protocol'
p815
S'arduino'
p816
ssS'name'
p817
S'Arduino Pro or Pro Mini (3.3V, 8 MHz) w/ ATmega328'
p818
sS'build'
p819
(dp820
S'core'
p821
S'arduino'
p822
sS'mcu'
p823
S'atmega328p'
p824
sS'f_cpu'
p825
S'8000000L'
p826
sS'variant'
p827
S'standard'
p828
ssaa(lp829
S'pro'
p830
a(dp831
S'bootloader'
p832
(dp833
S'extended_fuses'
p834
S'0x00'
p835
sS'high_fuses'
p836
S'0xdd'
p837
sS'low_fuses'
p838
S'0xc6'
p839
sS'lock_bits'
p840
S'0x0F'
p841
sS'file'
p842
S'ATmegaBOOT_168_pro_8MHz.hex'
p843
sS'path'
p844
S'atmega'
p845
sS'unlock_bits'
p846
S'0x3F'
p847
ssS'upload'
p848
(dp849
S'speed'
p850
S'19200'
p851
sS'maximum_size'
p852
S'14336'
p853
sS'protocol'
p854
S'arduino'
p855
ssS'name'
p856
S'Arduino Pro or Pro Mini (3.3V, 8 MHz) w/ ATmega168'
p857
sS'build'
p858
(dp859
S'core'
p860
S'arduino'
p861
sS'mcu'
p862
S'atmega168'
p863
sS'f_cpu'
p864
S'8000000L'
p865
sS'variant'
p866
S'standard'
p867
ssaa(lp868
S'atmega168'
p869
a(dp870
S'bootloader'
p871
(dp872
S'extended_fuses'
p873
S'0x00'
p874
sS'high_fuses'
p875
S'0xdd'
p876
sS'low_fuses'
p877
S'0xff'
p878
sS'lock_bits'
p879
S'0x0F'
p880
sS'file'
p881
S'ATmegaBOOT_168_ng.hex'
p882
sS'path'
p883
S'atmega'
p884
sS'unlock_bits'
p885
S'0x3F'
p886
ssS'upload'
p887
(dp888
S'speed'
p889
S'19200'
p890
sS'maximum_size'
p891
S'14336'
p892
sS'protocol'
p893
S'arduino'
p894
ssS'name'
p895
S'Arduino NG or older w/ ATmega168'
p896
sS'build'
p897
(dp898
S'core'
p899
S'arduino'
p900
sS'mcu'
p901
S'atmega168'
p902
sS'f_cpu'
p903
S'16000000L'
p904
sS'variant'
p905
S'standard'
p906
ssaa(lp907
S'atmega8'
p908
a(dp909
S'bootloader'
p910
(dp911
S'high_fuses'
p912
S'0xca'
p913
sS'low_fuses'
p914
S'0xdf'
p915
sS'lock_bits'
p916
S'0x0F'
p917
sS'file'
p918
S'ATmegaBOOT.hex'
p919
sS'path'
p920
S'atmega8'
p921
sS'unlock_bits'
p922
S'0x3F'
p923
ssS'upload'
p924
(dp925
S'speed'
p926
S'19200'
p927
sS'maximum_size'
p928
S'7168'
p929
sS'protocol'
p930
S'arduino'
p931
ssS'name'
p932
S'Arduino NG or older w/ ATmega8'
p933
sS'build'
p934
(dp935
S'core'
p936
S'arduino'
p937
sS'mcu'
p938
S'atmega8'
p939
sS'f_cpu'
p940
S'16000000L'
p941
sS'variant'
p942
S'standard'
p943
ssaatp944
Rp945
(dp946
S'default'
p947
S'uno'
p948
sbtp949
a(S'cxx'
p950
S'/usr/bin/avr-g++'
p951
tp952
a.